; Function Attrs: mustprogress nounwind uwtable
define dso_local noundef ptr @_ZNK4llvm15TreePredicateFn16getAddressSpacesEv(ptr nocapture noundef nonnull readonly align 8 dereferenceable(8) %0) local_unnamed_addr #0 align 2 {
  %2 = load ptr, ptr %0, align 8
  %3 = getelementptr inbounds nuw i8, ptr %2, i64 48
  %4 = load ptr, ptr %3, align 8
  %5 = tail call noundef ptr @_ZNK4llvm6Record12getValueInitENS_9StringRefE(ptr noundef nonnull align 8 dereferenceable(192) %4, ptr nonnull @.str.87, i64 13) #29
  %6 = getelementptr inbounds nuw i8, ptr %5, i64 8
  %7 = load i8, ptr %6, align 8
  %8 = icmp eq i8 %7, 24
  br i1 %8, label %11, label %9

9:                                                ; preds = %1
  %10 = tail call noundef ptr @_ZNK4llvm6Record18getValueAsListInitENS_9StringRefE(ptr noundef nonnull align 8 dereferenceable(192) %4, ptr nonnull @.str.87, i64 13) #29
  br label %11

11:                                               ; preds = %1, %9
  %.0 = phi ptr [ %10, %9 ], [ null, %1 ]
  ret ptr %.0
}